; Function Attrs: mustprogress uwtable
define void @_ZN6icu_779SpoofDataC2ER10UErrorCode(ptr noundef nonnull writeonly align 8 captures(none) dereferenceable(56) initializes((0, 9), (16, 28)) %0, ptr noundef nonnull align 4 captures(none) dereferenceable(4) %1) unnamed_addr #1 align 2 {
  store ptr null, ptr %0, align 8, !tbaa !29
  %3 = getelementptr inbounds nuw i8, ptr %0, i64 8
  store i8 0, ptr %3, align 8, !tbaa !73
  %4 = getelementptr inbounds nuw i8, ptr %0, i64 16
  store ptr null, ptr %4, align 8, !tbaa !74
  %5 = getelementptr inbounds nuw i8, ptr %0, i64 24
  store i32 0, ptr %5, align 8, !tbaa !75
  %6 = getelementptr inbounds nuw i8, ptr %0, i64 28
  store atomic i32 1, ptr %6 seq_cst, align 4
  %7 = getelementptr inbounds nuw i8, ptr %0, i64 32
  tail call void @llvm.memset.p0.i64(ptr noundef nonnull align 8 dereferenceable(24) %7, i8 0, i64 24, i1 false)
  %8 = load i32, ptr %1, align 4, !tbaa !19
  %9 = icmp slt i32 %8, 1
  br i1 %9, label %10, label %_ZN6icu_779SpoofData8initPtrsER10UErrorCode.exit

10:                                               ; preds = %2
  store i8 1, ptr %3, align 8, !tbaa !73
  %11 = tail call noalias dereferenceable_or_null(96) ptr @uprv_malloc_77(i64 noundef 96) #24
  store ptr %11, ptr %0, align 8, !tbaa !29
  store i32 96, ptr %5, align 8, !tbaa !75
  %12 = icmp eq ptr %11, null
  br i1 %12, label %13, label %14

13:                                               ; preds = %10
  store i32 7, ptr %1, align 4, !tbaa !19
  br label %_ZN6icu_779SpoofData8initPtrsER10UErrorCode.exit

14:                                               ; preds = %10
  %15 = getelementptr inbounds nuw i8, ptr %11, i64 8
  tail call void @llvm.memset.p0.i64(ptr noundef nonnull align 4 dereferenceable(88) %15, i8 0, i64 88, i1 false)
  store i32 944111087, ptr %11, align 4, !tbaa !36
  %16 = getelementptr inbounds nuw i8, ptr %11, i64 4
  store i8 2, ptr %16, align 4, !tbaa !38
  %17 = getelementptr inbounds nuw i8, ptr %11, i64 5
  store i8 0, ptr %17, align 1, !tbaa !38
  %18 = getelementptr inbounds nuw i8, ptr %11, i64 6
  store i8 0, ptr %18, align 2, !tbaa !38
  %19 = getelementptr inbounds nuw i8, ptr %11, i64 7
  store i8 0, ptr %19, align 1, !tbaa !38
  tail call void @llvm.memset.p0.i64(ptr noundef nonnull align 8 dereferenceable(24) %7, i8 0, i64 24, i1 false)
  br label %_ZN6icu_779SpoofData8initPtrsER10UErrorCode.exit

_ZN6icu_779SpoofData8initPtrsER10UErrorCode.exit: ; preds = %14, %13, %2
  ret void
}